target datalayout = "e-m:e-p270:32:32-p271:32:32-p272:64:64-i64:64-i128:128-f80:128-n8:16:32:64-S128"
target triple = "x86_64-pc-linux-gnu"

%"class.std::__cxx11::basic_string" = type { %"struct.std::__cxx11::basic_string<char>::_Alloc_hider", i64, %union.anon }
%"struct.std::__cxx11::basic_string<char>::_Alloc_hider" = type { ptr }
%union.anon = type { i64, [8 x i8] }
%"struct.casadi::Options" = type { %"class.std::vector.3", %"class.std::map" }
%"class.std::vector.3" = type { %"struct.std::_Vector_base.4" }
%"struct.std::_Vector_base.4" = type { %"struct.std::_Vector_base<const casadi::Options *, std::allocator<const casadi::Options *>>::_Vector_impl" }
%"struct.std::_Vector_base<const casadi::Options *, std::allocator<const casadi::Options *>>::_Vector_impl" = type { %"struct.std::_Vector_base<const casadi::Options *, std::allocator<const casadi::Options *>>::_Vector_impl_data" }
%"struct.std::_Vector_base<const casadi::Options *, std::allocator<const casadi::Options *>>::_Vector_impl_data" = type { ptr, ptr, ptr }
%"class.std::map" = type { %"class.std::_Rb_tree" }
%"class.std::_Rb_tree" = type { %"struct.std::_Rb_tree<std::__cxx11::basic_string<char>, std::pair<const std::__cxx11::basic_string<char>, casadi::Options::Entry>, std::_Select1st<std::pair<const std::__cxx11::basic_string<char>, casadi::Options::Entry>>, std::less<std::__cxx11::basic_string<char>>>::_Rb_tree_impl" }
%"struct.std::_Rb_tree<std::__cxx11::basic_string<char>, std::pair<const std::__cxx11::basic_string<char>, casadi::Options::Entry>, std::_Select1st<std::pair<const std::__cxx11::basic_string<char>, casadi::Options::Entry>>, std::less<std::__cxx11::basic_string<char>>>::_Rb_tree_impl" = type { [8 x i8], %"struct.std::_Rb_tree_header" }
%"struct.std::_Rb_tree_header" = type { %"struct.std::_Rb_tree_node_base", i64 }
%"struct.std::_Rb_tree_node_base" = type { i32, ptr, ptr, ptr }
%"struct.casadi::PluginInterface<casadi::Rootfinder>::Plugin" = type { ptr, ptr, ptr, i32, ptr, ptr }

@.str.8 = private unnamed_addr constant [7 x i8] c"nlpsol\00", align 1
@_ZN6casadi13ImplicitToNlp8meta_docB5cxx11E = external global %"class.std::__cxx11::basic_string", align 8
@_ZN6casadi13ImplicitToNlp8options_E = global %"struct.casadi::Options" zeroinitializer, align 8

; Function Attrs: mustprogress nounwind uwtable
define available_externally noundef ptr @_ZNKSt7__cxx1112basic_stringIcSt11char_traitsIcESaIcEE7_M_dataEv(ptr noundef nonnull align 8 dereferenceable(32) %0) #5 align 2 {
  %2 = alloca ptr, align 8
  store ptr %0, ptr %2, align 8, !tbaa !13
  %3 = load ptr, ptr %2, align 8
  %4 = getelementptr inbounds nuw %"class.std::__cxx11::basic_string", ptr %3, i32 0, i32 0
  %5 = getelementptr inbounds nuw %"struct.std::__cxx11::basic_string<char>::_Alloc_hider", ptr %4, i32 0, i32 0
  %6 = load ptr, ptr %5, align 8, !tbaa !285
  ret ptr %6
}

; Function Attrs: mustprogress nounwind uwtable
define available_externally noundef ptr @_ZNKSt7__cxx1112basic_stringIcSt11char_traitsIcESaIcEE5c_strEv(ptr noundef nonnull align 8 dereferenceable(32) %0) #5 align 2 {
  %2 = alloca ptr, align 8
  store ptr %0, ptr %2, align 8, !tbaa !13
  %3 = load ptr, ptr %2, align 8
  %4 = call noundef ptr @_ZNKSt7__cxx1112basic_stringIcSt11char_traitsIcESaIcEE7_M_dataEv(ptr noundef nonnull align 8 dereferenceable(32) %3)
  ret ptr %4
}

; Function Attrs: mustprogress nounwind uwtable
define i32 @casadi_register_rootfinder_nlpsol(ptr noundef %0) #5 {
  %2 = alloca ptr, align 8
  store ptr %0, ptr %2, align 8, !tbaa !25
  %3 = load ptr, ptr %2, align 8, !tbaa !25
  %4 = getelementptr inbounds nuw %"struct.casadi::PluginInterface<casadi::Rootfinder>::Plugin", ptr %3, i32 0, i32 0
  store ptr @_ZN6casadi13ImplicitToNlp7creatorERKNSt7__cxx1112basic_stringIcSt11char_traitsIcESaIcEEERKNS_8FunctionE, ptr %4, align 8, !tbaa !27
  %5 = load ptr, ptr %2, align 8, !tbaa !25
  %6 = getelementptr inbounds nuw %"struct.casadi::PluginInterface<casadi::Rootfinder>::Plugin", ptr %5, i32 0, i32 1
  store ptr @.str.8, ptr %6, align 8, !tbaa !32
  %7 = call noundef ptr @_ZNKSt7__cxx1112basic_stringIcSt11char_traitsIcESaIcEE5c_strEv(ptr noundef nonnull align 8 dereferenceable(32) @_ZN6casadi13ImplicitToNlp8meta_docB5cxx11E) #3
  %8 = load ptr, ptr %2, align 8, !tbaa !25
  %9 = getelementptr inbounds nuw %"struct.casadi::PluginInterface<casadi::Rootfinder>::Plugin", ptr %8, i32 0, i32 2
  store ptr %7, ptr %9, align 8, !tbaa !33
  %10 = load ptr, ptr %2, align 8, !tbaa !25
  %11 = getelementptr inbounds nuw %"struct.casadi::PluginInterface<casadi::Rootfinder>::Plugin", ptr %10, i32 0, i32 3
  store i32 31, ptr %11, align 8, !tbaa !34
  %12 = load ptr, ptr %2, align 8, !tbaa !25
  %13 = getelementptr inbounds nuw %"struct.casadi::PluginInterface<casadi::Rootfinder>::Plugin", ptr %12, i32 0, i32 4
  store ptr @_ZN6casadi13ImplicitToNlp8options_E, ptr %13, align 8, !tbaa !35
  ret i32 0
}